LIBRARY libprotobuf_dll
EXPORTS
    ?AllocateAlignedWithHook@Arena@protobuf@google@@AAEPAXIIPBVtype_info@@@Z=stub_0
    ?WriteVarint32SignExtendedToArray@CodedOutputStream@io@protobuf@google@@SAPAEHPAE@Z=stub_1
    ?WriteVarint64ToArray@CodedOutputStream@io@protobuf@google@@SAPAE_KPAE@Z=stub_2
    ?Int64Size@WireFormatLite@internal@protobuf@google@@SAI_J@Z=stub_3
    ?EnumSize@WireFormatLite@internal@protobuf@google@@SAIH@Z=stub_4
    ?Int32SizePlusOne@WireFormatLite@internal@protobuf@google@@SAIH@Z=stub_5
    ?InternalGetTable@MessageLite@protobuf@google@@EBEPBXXZ=stub_6
    ?GetArenaForAllocation@MessageLite@protobuf@google@@IBEPAVArena@23@XZ=stub_7
    ?GetEmptyStringAlreadyInited@internal@protobuf@google@@YAABV?$basic_string@DU?$char_traits@D@std@@V?$allocator@D@2@@std@@XZ=stub_8
    ?Int64SizePlusOne@WireFormatLite@internal@protobuf@google@@SAI_J@Z=stub_9
    ?WriteVarint32ToArray@CodedOutputStream@io@protobuf@google@@SAPAEIPAE@Z=stub_10
    ?WriteStringMaybeAliased@EpsCopyOutputStream@io@protobuf@google@@QAEPAEIABV?$basic_string@DU?$char_traits@D@std@@V?$allocator@D@2@@std@@PAE@Z=stub_11
    ?StringSize@WireFormatLite@internal@protobuf@google@@SAIABV?$basic_string@DU?$char_traits@D@std@@V?$allocator@D@2@@std@@@Z=stub_12
    ?DestroyNoArena@ArenaStringPtr@internal@protobuf@google@@QAEXPBV?$basic_string@DU?$char_traits@D@std@@V?$allocator@D@2@@std@@@Z=stub_13
    ?Done@ParseContext@internal@protobuf@google@@QAE_NPAPBD@Z=stub_14
    ?Get@CachedSize@internal@protobuf@google@@QBEHXZ=stub_15
    ?Set@CachedSize@internal@protobuf@google@@QAEXH@Z=stub_16
    ?EnsureSpace@EpsCopyOutputStream@io@protobuf@google@@QAEPAEPAE@Z=stub_17
    ?UnknownFieldParse@internal@protobuf@google@@YAPBDIPAV?$basic_string@DU?$char_traits@D@std@@V?$allocator@D@2@@std@@PBDPAVParseContext@123@@Z=stub_18
    ??0ArenaStringPtr@internal@protobuf@google@@QAE@PBV?$ExplicitlyConstructed@V?$basic_string@DU?$char_traits@D@std@@V?$allocator@D@2@@std@@@123@@Z=stub_19
    ??1UnknownFieldSet@protobuf@google@@QAE@XZ=stub_20
    ??$DoMergeFrom@V?$basic_string@DU?$char_traits@D@std@@V?$allocator@D@2@@std@@@InternalMetadata@internal@protobuf@google@@AAEXABV?$basic_string@DU?$char_traits@D@std@@V?$allocator@D@2@@std@@@Z=stub_21
    ?UnsafeSetDefault@ArenaStringPtr@internal@protobuf@google@@QAEXPBV?$basic_string@DU?$char_traits@D@std@@V?$allocator@D@2@@std@@@Z=stub_22
    ??$DoClear@V?$basic_string@DU?$char_traits@D@std@@V?$allocator@D@2@@std@@@InternalMetadata@internal@protobuf@google@@AAEXXZ=stub_23
    ?Clear@UnknownFieldSet@protobuf@google@@QAEXXZ=stub_24
    ?VarintParseSlow32@internal@protobuf@google@@YA?AU?$pair@PBDI@std@@PBDI@Z=stub_25
    ?InitializationErrorString@MessageLite@protobuf@google@@UBE?AV?$basic_string@DU?$char_traits@D@std@@V?$allocator@D@2@@std@@XZ=stub_26
    ?VarintParseSlow64@internal@protobuf@google@@YA?AU?$pair@PBD_K@std@@PBDI@Z=stub_27
    ?fixed_address_empty_string@internal@protobuf@google@@3V?$ExplicitlyConstructed@V?$basic_string@DU?$char_traits@D@std@@V?$allocator@D@2@@std@@@123@A=stub_28
    ?InternalSerializeUnknownFieldsToArray@WireFormat@internal@protobuf@google@@SAPAEABVUnknownFieldSet@34@PAEPAVEpsCopyOutputStream@io@34@@Z=stub_29
    ??0AddDescriptorsRunner@internal@protobuf@google@@QAE@PBUDescriptorTable@123@@Z=stub_30
    ?InlineGreedyStringParser@internal@protobuf@google@@YAPBDPAV?$basic_string@DU?$char_traits@D@std@@V?$allocator@D@2@@std@@PBDPAVParseContext@123@@Z=stub_31
    ?ClearToEmpty@ArenaStringPtr@internal@protobuf@google@@QAEXXZ=stub_32
    ?Mutable@ArenaStringPtr@internal@protobuf@google@@QAEPAV?$basic_string@DU?$char_traits@D@std@@V?$allocator@D@2@@std@@UEmptyDefault@1234@PAVArena@34@@Z=stub_33
    ?Set@ArenaStringPtr@internal@protobuf@google@@QAEXUEmptyDefault@1234@ABV?$basic_string@DU?$char_traits@D@std@@V?$allocator@D@2@@std@@PAVArena@34@@Z=stub_34
    ??0Message@protobuf@google@@QAE@XZ=stub_35
    ??0Message@protobuf@google@@IAE@PAVArena@12@_N@Z=stub_36
    ??1Message@protobuf@google@@UAE@XZ=stub_37
    ??0CachedSize@internal@protobuf@google@@QAE@XZ=stub_38
    ?AllocateAlignedWithCleanup@Arena@protobuf@google@@AAE?AU?$pair@PAXPAUCleanupNode@SerialArena@internal@protobuf@google@@@std@@IPBVtype_info@@@Z=stub_39
    ?CopyFrom@Message@protobuf@google@@UAEXABV123@@Z=stub_40
    ?ReadTagFallback@internal@protobuf@google@@YA?AU?$pair@PBDI@std@@PBDI@Z=stub_41
    ?VerifyUTF8@internal@protobuf@google@@YA_NVStringPiece@stringpiece_internal@23@PBD@Z=stub_42
    ?VerifyUtf8String@WireFormatLite@internal@protobuf@google@@SA_NPBDHW4Operation@1234@0@Z=stub_43
    ?MergeFrom@UnknownFieldSet@protobuf@google@@QAEXABV123@@Z=stub_44
    ?MaybeComputeUnknownFieldsSize@Message@protobuf@google@@IBEIIPAVCachedSize@internal@23@@Z=stub_45
    ?Int32Size@WireFormatLite@internal@protobuf@google@@SAIH@Z=stub_46
    ??1MessageLite@protobuf@google@@UAE@XZ=stub_47
    ?CopyWithSizeCheck@Message@protobuf@google@@KAXPAV123@ABV123@@Z=stub_48
    ?CheckTypeAndMergeFrom@Message@protobuf@google@@UAEXABVMessageLite@23@@Z=stub_49
    ?GetTypeName@Message@protobuf@google@@UBE?AV?$basic_string@DU?$char_traits@D@std@@V?$allocator@D@2@@std@@XZ=stub_50
    ??0MessageLite@protobuf@google@@IAE@PAVArena@12@_N@Z=stub_51
    ?SpaceUsedLong@Message@protobuf@google@@UBEIXZ=stub_52
    ?InitializationErrorString@Message@protobuf@google@@UBE?AV?$basic_string@DU?$char_traits@D@std@@V?$allocator@D@2@@std@@XZ=stub_53
    ??0UnknownFieldSet@protobuf@google@@QAE@XZ=stub_54
    ??0MessageLite@protobuf@google@@QAE@XZ=stub_55
    ?WriteRaw@EpsCopyOutputStream@io@protobuf@google@@QAEPAEPBXHPAE@Z=stub_56
    ?SerializeToString@MessageLite@protobuf@google@@QBE_NPAV?$basic_string@DU?$char_traits@D@std@@V?$allocator@D@2@@std@@@Z=stub_57
    ?MergeFrom@Message@protobuf@google@@UAEXABV123@@Z=stub_58
    ?UnknownFieldParse@internal@protobuf@google@@YAPBD_KPAVUnknownFieldSet@23@PBDPAVParseContext@123@@Z=stub_59
    ?AssignDescriptors@internal@protobuf@google@@YA?AUMetadata@23@P6APBUDescriptorTable@123@XZPAUonce_flag@std@@ABU423@@Z=stub_60
    ?ParseFromArray@MessageLite@protobuf@google@@QAE_NPBXH@Z=stub_61
    ?DebugString@Message@protobuf@google@@QBE?AV?$basic_string@DU?$char_traits@D@std@@V?$allocator@D@2@@std@@XZ=stub_62
    <none>=stub_63
    <none>=stub_64
    <none>=stub_65
    <none>=stub_66
    AcquireSRWLockExclusive=stub_67
    AcquireSRWLockShared=stub_68
    WaitForSingleObjectEx=stub_69
    InitializeSListHead=stub_70
    ReleaseSRWLockExclusive=stub_71
    ReleaseSRWLockShared=stub_72
    LoadLibraryA=stub_73
    GetSystemPowerStatus=stub_74
    GetNativeSystemInfo=stub_75
    GetSystemDefaultLangID=stub_76
    MapViewOfFileEx=stub_77
    lstrlenW=stub_78
    GetTimeFormatW=stub_79
    GetDateFormatW=stub_80
    GetCurrencyFormatW=stub_81
    GetNumberFormatW=stub_82
    GetLocaleInfoW=stub_83
    SystemTimeToTzSpecificLocalTime=stub_84
    InitializeCriticalSectionEx=stub_85
    GetLastError=stub_86
    RaiseException=stub_87
    LoadLibraryW=stub_88
    GetProcAddress=stub_89
    DeleteCriticalSection=stub_90
    SetLastError=stub_91
    TerminateProcess=stub_92
    GetModuleFileNameW=stub_93
    OpenProcess=stub_94
    CreateToolhelp32Snapshot=stub_95
    ProcessIdToSessionId=stub_96
    Sleep=stub_97
    Process32NextW=stub_98
    Process32FirstW=stub_99
    CloseHandle=stub_100
    VerSetConditionMask=stub_101
    ReadProcessMemory=stub_102
    GetCurrentProcessId=stub_103
    GetModuleHandleW=stub_104
    VerifyVersionInfoW=stub_105
    OpenMutexW=stub_106
    WaitForSingleObject=stub_107
    CreateEventW=stub_108
    SetEvent=stub_109
    ResetEvent=stub_110
    ReadFile=stub_111
    SizeofResource=stub_112
    HeapFree=stub_113
    EnterCriticalSection=stub_114
    VirtualFree=stub_115
    GetCurrentProcess=stub_116
    WriteFile=stub_117
    VirtualAlloc=stub_118
    LeaveCriticalSection=stub_119
    SetFilePointer=stub_120
    CreateFileW=stub_121
    GetVersionExW=stub_122
    HeapSize=stub_123
    OutputDebugStringW=stub_124
    GetCurrentThread=stub_125
    LockResource=stub_126
    DeleteFileW=stub_127
    HeapReAlloc=stub_128
    FindResourceExW=stub_129
    LoadResource=stub_130
    FindResourceW=stub_131
    HeapAlloc=stub_132
    HeapDestroy=stub_133
    GetProcessHeap=stub_134
    SetThreadPriority=stub_135
    GetThreadPriority=stub_136
    UnhandledExceptionFilter=stub_137
    DeviceIoControl=stub_138
    GetVersion=stub_139
    ExitProcess=stub_140
    FreeLibrary=stub_141
    GetTickCount64=stub_142
    QueryPerformanceFrequency=stub_143
    CreateMutexW=stub_144
    GetSystemDirectoryW=stub_145
    IsDebuggerPresent=stub_146
    WaitForMultipleObjects=stub_147
    GetProcessId=stub_148
    WTSGetActiveConsoleSessionId=stub_149
    GetExitCodeProcess=stub_150
    GetModuleHandleExW=stub_151
    GetCurrentThreadId=stub_152
    FormatMessageW=stub_153
    LocalFree=stub_154
    CreateTimerQueueTimer=stub_155
    ExpandEnvironmentStringsW=stub_156
    OpenEventW=stub_157
    ReleaseMutex=stub_158
    GlobalMemoryStatusEx=stub_159
    SleepEx=stub_160
    GetSystemTimeAsFileTime=stub_161
    DeleteTimerQueueTimer=stub_162
    GetTickCount=stub_163
    GetProcessTimes=stub_164
    LoadLibraryExW=stub_165
    SetConsoleCtrlHandler=stub_166
    MoveFileExW=stub_167
    CreateProcessW=stub_168
    CopyFileW=stub_169
    CreateThread=stub_170
    lstrcmpiW=stub_171
    VirtualQuery=stub_172
    VirtualProtect=stub_173
    FlushInstructionCache=stub_174
    ResumeThread=stub_175
    GetThreadContext=stub_176
    SetThreadContext=stub_177
    SuspendThread=stub_178
    SetProcessWorkingSetSize=stub_179
    GetCommandLineA=stub_180
    GetSystemInfo=stub_181
    GetProcessHandleCount=stub_182
    GetProcessIoCounters=stub_183
    InitializeCriticalSection=stub_184
    lstrcpynW=stub_185
    QueryFullProcessImageNameW=stub_186
    SetErrorMode=stub_187
    SearchPathW=stub_188
    IsProcessorFeaturePresent=stub_189
    IsBadReadPtr=stub_190
    IsBadWritePtr=stub_191
    SetUnhandledExceptionFilter=stub_192
    WriteProcessMemory=stub_193
    GetCommandLineW=stub_194
    MultiByteToWideChar=stub_195
    InitializeCriticalSectionAndSpinCount=stub_196
    SwitchToThread=stub_197
    UnmapViewOfFile=stub_198
    CreateFileMappingW=stub_199
    WideCharToMultiByte=stub_200
    GetFileAttributesW=stub_201
    FindFirstFileW=stub_202
    SystemTimeToFileTime=stub_203
    FindNextFileW=stub_204
    FindClose=stub_205
    GetTempPathW=stub_206
    QueryPerformanceCounter=stub_207
    FileTimeToLocalFileTime=stub_208
    FileTimeToSystemTime=stub_209
    GetDlgItem=stub_210
    GetGuiResources=stub_211
    MsgWaitForMultipleObjects=stub_212
    PeekMessageW=stub_213
    GetMessageW=stub_214
    CreateDialogParamW=stub_215
    GetWindowRect=stub_216
    SetWindowPos=stub_217
    SendMessageW=stub_218
    GetSystemMetrics=stub_219
    ShowWindow=stub_220
    DispatchMessageW=stub_221
    SetFocus=stub_222
    TranslateMessage=stub_223
    RegQueryValueExW=stub_224
    RegOpenKeyExW=stub_225
    OpenProcessToken=stub_226
    RegSetValueExW=stub_227
    RegCloseKey=stub_228
    OpenTraceW=stub_229
    ControlTraceW=stub_230
    CloseTrace=stub_231
    ProcessTrace=stub_232
    StartTraceW=stub_233
    DuplicateTokenEx=stub_234
    CreateProcessAsUserW=stub_235
    LookupPrivilegeValueW=stub_236
    QueryServiceStatusEx=stub_237
    OpenServiceW=stub_238
    ControlService=stub_239
    RegQueryInfoKeyW=stub_240
    RegSetKeySecurity=stub_241
    RegGetKeySecurity=stub_242
    RegNotifyChangeKeyValue=stub_243
    RegEnumValueW=stub_244
    RegEnumKeyExW=stub_245
    RegFlushKey=stub_246
    RegisterServiceCtrlHandlerExW=stub_247
    CreateServiceW=stub_248
    RegDeleteKeyW=stub_249
    SetServiceStatus=stub_250
    ChangeServiceConfig2W=stub_251
    DeleteService=stub_252
    StartServiceCtrlDispatcherW=stub_253
    QueryServiceStatus=stub_254
    RegCreateKeyExW=stub_255
    StartServiceW=stub_256
    RegDeleteValueW=stub_257
    SetTokenInformation=stub_258
    ImpersonateLoggedOnUser=stub_259
    CloseServiceHandle=stub_260
    OpenSCManagerW=stub_261
    GetTokenInformation=stub_262
    CommandLineToArgvW=stub_263
    CoUninitialize=stub_264
    CoInitialize=stub_265
    PathAddBackslashW=stub_266
    PathAppendW=stub_267
    PathStripPathA=stub_268
    PathFileExistsW=stub_269
    StrStrIW=stub_270
    StrFormatByteSizeW=stub_271
    StrFormatKBSizeW=stub_272
    StrFromTimeIntervalW=stub_273
    PathRemoveFileSpecW=stub_274
    SHGetValueW=stub_275
    GetProcessImageFileNameW=stub_276
    EnumProcessModules=stub_277
    GetModuleFileNameExW=stub_278
    GetModuleBaseNameW=stub_279
    GetProcessMemoryInfo=stub_280
    EnumProcesses=stub_281
    _Strxfrm=stub_282
    ??1_Lockit@std@@QAE@XZ=stub_283
    ??0_Lockit@std@@QAE@H@Z=stub_284
    ?_Getgloballocale@locale@std@@CAPAV_Locimp@12@XZ=stub_285
    ?_Init@locale@std@@CAPAV_Locimp@12@_N@Z=stub_286
    ?_Xregex_error@std@@YAXW4error_type@regex_constants@1@@Z=stub_287
    ?id@?$ctype@D@std@@2V0locale@2@A=stub_288
    ?id@?$collate@D@std@@2V0locale@2@A=stub_289
    _Strcoll=stub_290
    ?sputn@?$basic_streambuf@_WU?$char_traits@_W@std@@@std@@QAE_JPB_W_J@Z=stub_291
    ?sputc@?$basic_streambuf@_WU?$char_traits@_W@std@@@std@@QAEG_W@Z=stub_292
    ??0?$basic_streambuf@_WU?$char_traits@_W@std@@@std@@IAE@XZ=stub_293
    ??1?$basic_iostream@DU?$char_traits@D@std@@@std@@UAE@XZ=stub_294
    ??0?$basic_iostream@DU?$char_traits@D@std@@@std@@QAE@PAV?$basic_streambuf@DU?$char_traits@D@std@@@1@@Z=stub_295
    ??6?$basic_ostream@DU?$char_traits@D@std@@@std@@QAEAAV01@I@Z=stub_296
    ??6?$basic_ostream@DU?$char_traits@D@std@@@std@@QAEAAV01@H@Z=stub_297
    ??0?$basic_ios@DU?$char_traits@D@std@@@std@@IAE@XZ=stub_298
    ??1?$basic_ios@DU?$char_traits@D@std@@@std@@UAE@XZ=stub_299
    ?imbue@?$basic_streambuf@DU?$char_traits@D@std@@@std@@MAEXABVlocale@2@@Z=stub_300
    ?sync@?$basic_streambuf@DU?$char_traits@D@std@@@std@@MAEHXZ=stub_301
    ?setbuf@?$basic_streambuf@DU?$char_traits@D@std@@@std@@MAEPAV12@PAD_J@Z=stub_302
    ?xsputn@?$basic_streambuf@DU?$char_traits@D@std@@@std@@MAE_JPBD_J@Z=stub_303
    ?xsgetn@?$basic_streambuf@DU?$char_traits@D@std@@@std@@MAE_JPAD_J@Z=stub_304
    ?uflow@?$basic_streambuf@DU?$char_traits@D@std@@@std@@MAEHXZ=stub_305
    ?showmanyc@?$basic_streambuf@DU?$char_traits@D@std@@@std@@MAE_JXZ=stub_306
    ?_Pninc@?$basic_streambuf@DU?$char_traits@D@std@@@std@@IAEPADXZ=stub_307
    ?_Osfx@?$basic_ostream@_WU?$char_traits@_W@std@@@std@@QAEXXZ=stub_308
    ?flush@?$basic_ostream@_WU?$char_traits@_W@std@@@std@@QAEAAV12@XZ=stub_309
    ?gbump@?$basic_streambuf@_WU?$char_traits@_W@std@@@std@@IAEXH@Z=stub_310
    ?_Pninc@?$basic_streambuf@_WU?$char_traits@_W@std@@@std@@IAEPA_WXZ=stub_311
    ?setstate@?$basic_ios@_WU?$char_traits@_W@std@@@std@@QAEXH_N@Z=stub_312
    ??0?$basic_ios@_WU?$char_traits@_W@std@@@std@@IAE@XZ=stub_313
    ??0?$basic_ostream@_WU?$char_traits@_W@std@@@std@@QAE@PAV?$basic_streambuf@_WU?$char_traits@_W@std@@@1@_N@Z=stub_314
    ??1?$basic_streambuf@_WU?$char_traits@_W@std@@@std@@UAE@XZ=stub_315
    ?_Lock@?$basic_streambuf@_WU?$char_traits@_W@std@@@std@@UAEXXZ=stub_316
    ?_Unlock@?$basic_streambuf@_WU?$char_traits@_W@std@@@std@@UAEXXZ=stub_317
    ?showmanyc@?$basic_streambuf@_WU?$char_traits@_W@std@@@std@@MAE_JXZ=stub_318
    ?uflow@?$basic_streambuf@_WU?$char_traits@_W@std@@@std@@MAEGXZ=stub_319
    ?xsgetn@?$basic_streambuf@_WU?$char_traits@_W@std@@@std@@MAE_JPA_W_J@Z=stub_320
    ?xsputn@?$basic_streambuf@_WU?$char_traits@_W@std@@@std@@MAE_JPB_W_J@Z=stub_321
    ?setbuf@?$basic_streambuf@_WU?$char_traits@_W@std@@@std@@MAEPAV12@PA_W_J@Z=stub_322
    ?sync@?$basic_streambuf@_WU?$char_traits@_W@std@@@std@@MAEHXZ=stub_323
    ?imbue@?$basic_streambuf@_WU?$char_traits@_W@std@@@std@@MAEXABVlocale@2@@Z=stub_324
    ??1?$basic_ios@_WU?$char_traits@_W@std@@@std@@UAE@XZ=stub_325
    ??1?$basic_ostream@_WU?$char_traits@_W@std@@@std@@UAE@XZ=stub_326
    ??6?$basic_ostream@_WU?$char_traits@_W@std@@@std@@QAEAAV01@H@Z=stub_327
    ?_Getcat@?$ctype@D@std@@SAIPAPBVfacet@locale@2@PBV42@@Z=stub_328
    ?tolower@?$ctype@D@std@@QBEPBDPADPBD@Z=stub_329
    ?tolower@?$ctype@D@std@@QBEDD@Z=stub_330
    ??1facet@locale@std@@MAE@XZ=stub_331
    ??0facet@locale@std@@IAE@I@Z=stub_332
    ?_Decref@facet@locale@std@@UAEPAV_Facet_base@3@XZ=stub_333
    ?_Incref@facet@locale@std@@UAEXXZ=stub_334
    ??Bid@locale@std@@QAEIXZ=stub_335
    ?_Getcoll@_Locinfo@std@@QBE?AU_Collvec@@XZ=stub_336
    ??1_Locinfo@std@@QAE@XZ=stub_337
    ??0_Locinfo@std@@QAE@PBD@Z=stub_338
    ?_Throw_C_error@std@@YAXH@Z=stub_339
    _Mtx_destroy_in_situ=stub_340
    _Mtx_lock=stub_341
    _Mtx_init_in_situ=stub_342
    _Mtx_unlock=stub_343
    ?setw@std@@YA?AU?$_Smanip@_J@1@_J@Z=stub_344
    ??0?$basic_ostream@DU?$char_traits@D@std@@@std@@QAE@PAV?$basic_streambuf@DU?$char_traits@D@std@@@1@_N@Z=stub_345
    ??1?$basic_ostream@DU?$char_traits@D@std@@@std@@UAE@XZ=stub_346
    ??6?$basic_ostream@DU?$char_traits@D@std@@@std@@QAEAAV01@P6AAAVios_base@1@AAV21@@Z@Z=stub_347
    ?_Unlock@?$basic_streambuf@DU?$char_traits@D@std@@@std@@UAEXXZ=stub_348
    ?_Lock@?$basic_streambuf@DU?$char_traits@D@std@@@std@@UAEXXZ=stub_349
    ??1?$basic_streambuf@DU?$char_traits@D@std@@@std@@UAE@XZ=stub_350
    ??0?$basic_streambuf@DU?$char_traits@D@std@@@std@@IAE@XZ=stub_351
    ?setstate@?$basic_ios@DU?$char_traits@D@std@@@std@@QAEXH_N@Z=stub_352
    ?flush@?$basic_ostream@DU?$char_traits@D@std@@@std@@QAEAAV12@XZ=stub_353
    ?_Osfx@?$basic_ostream@DU?$char_traits@D@std@@@std@@QAEXXZ=stub_354
    ?widen@?$basic_ios@DU?$char_traits@D@std@@@std@@QBEDD@Z=stub_355
    ?sputc@?$basic_streambuf@DU?$char_traits@D@std@@@std@@QAEHD@Z=stub_356
    ??6?$basic_ostream@DU?$char_traits@D@std@@@std@@QAEAAV01@G@Z=stub_357
    ??6?$basic_ostream@DU?$char_traits@D@std@@@std@@QAEAAV01@P6AAAV01@AAV01@@Z@Z=stub_358
    ?sputn@?$basic_streambuf@DU?$char_traits@D@std@@@std@@QAE_JPBD_J@Z=stub_359
    ?put@?$basic_ostream@DU?$char_traits@D@std@@@std@@QAEAAV12@D@Z=stub_360
    ?_Xbad_alloc@std@@YAXXZ=stub_361
    ?uncaught_exception@std@@YA_NXZ=stub_362
    ?_Xout_of_range@std@@YAXPBD@Z=stub_363
    ?_Xlength_error@std@@YAXPBD@Z=stub_364
    WTSQueryUserToken=stub_365
    WTSFreeMemory=stub_366
    WTSEnumerateSessionsW=stub_367
    WTSEnumerateProcessesW=stub_368
    WTSQuerySessionInformationW=stub_369
    _except_handler4_common=stub_370
    __current_exception_context=stub_371
    __current_exception=stub_372
    _set_purecall_handler=stub_373
    strchr=stub_374
    _CxxThrowException=stub_375
    wcsstr=stub_376
    memcmp=stub_377
    _purecall=stub_378
    wcschr=stub_379
    wcsrchr=stub_380
    __CxxFrameHandler3=stub_381
    __std_exception_destroy=stub_382
    memmove=stub_383
    memcpy=stub_384
    __std_exception_copy=stub_385
    memset=stub_386
    __std_terminate=stub_387
    realloc=stub_388
    _recalloc=stub_389
    calloc=stub_390
    malloc=stub_391
    _callnewh=stub_392
    free=stub_393
    _set_new_mode=stub_394
    _beginthreadex=stub_395
    terminate=stub_396
    _controlfp_s=stub_397
    _register_thread_local_exe_atexit_callback=stub_398
    _c_exit=stub_399
    __p___wargv=stub_400
    __p___argc=stub_401
    _invalid_parameter_noinfo_noreturn=stub_402
    _exit=stub_403
    exit=stub_404
    _initterm_e=stub_405
    _initterm=stub_406
    _get_initial_wide_environment=stub_407
    _initialize_wide_environment=stub_408
    _configure_wide_argv=stub_409
    _set_app_type=stub_410
    _seh_filter_exe=stub_411
    _cexit=stub_412
    _crt_atexit=stub_413
    _register_onexit_function=stub_414
    _initialize_onexit_table=stub_415
    _errno=stub_416
    _invalid_parameter_noinfo=stub_417
    _set_invalid_parameter_handler=stub_418
    __stdio_common_vswprintf_s=stub_419
    __stdio_common_vsnwprintf_s=stub_420
    _set_fmode=stub_421
    __stdio_common_vsnprintf_s=stub_422
    __stdio_common_vswscanf=stub_423
    __p__commode=stub_424
    __stdio_common_vswprintf=stub_425
    __stdio_common_vsscanf=stub_426
    wcsncpy=stub_427
    isspace=stub_428
    _wcsupr=stub_429
    wcscat_s=stub_430
    wcsncat_s=stub_431
    wcsncpy_s=stub_432
    _wcsnicmp=stub_433
    strlen=stub_434
    wcscpy_s=stub_435
    strncpy_s=stub_436
    _wcsicmp=stub_437
    wcslen=stub_438
    wcsnlen=stub_439
    wmemcpy_s=stub_440
    _stricmp=stub_441
    _wcslwr_s=stub_442
    wcscmp=stub_443
    wcsncmp=stub_444
    wcstol=stub_445
    atoi=stub_446
    _wtol=stub_447
    _time64=stub_448
    _configthreadlocale=stub_449
    _wsplitpath_s=stub_450
    __setusermatherr=stub_451
